(dp0
VServer
p1
Vcmsweb.cern.ch
p2
sVPort
p3
V
p4
sVRequestName
p5
V240916_221010:damram_crab_EGamma_crab_MC_22G
p6
sVvoRole
p7
VNULL
p8
sVvoGroup
p9
g4
sVinstance
p10
Vprod
p11
sVOriginalConfig
p12
ccopy_reg
_reconstructor
p13
(cWMCore.Configuration
Configuration
p14
c__builtin__
object
p15
Ntp16
Rp17
(dp18
V_internal_sections
p19
(lp20
VGeneral
p21
aVJobType
p22
aVData
p23
aVSite
p24
asg21
g13
(cWMCore.Configuration
ConfigSection
p25
g15
Ntp26
Rp27
(dp28
V_internal_documentation
p29
g4
sV_internal_name
p30
g21
sV_internal_settings
p31
c__builtin__
set
p32
((lp33
VworkArea
p34
aVrequestName
p35
atp36
Rp37
sV_internal_docstrings
p38
(dp39
sV_internal_children
p40
g32
((lp41
tp42
Rp43
sV_internal_parent_ref
p44
NsV_internal_skipChecks
p45
I00
sg35
VEGamma_crab_MC_22G
p46
sg34
Vcrab_projects
p47
sbsg22
g13
(g25
g15
Ntp48
Rp49
(dp50
g29
g4
sg30
g22
sg31
g32
((lp51
VmaxJobRuntimeMin
p52
aVpluginName
p53
aVpsetName
p54
aVinputFiles
p55
aVallowUndistributedCMSSW
p56
atp57
Rp58
sg38
(dp59
sg40
g32
((lp60
tp61
Rp62
sg44
Nsg45
I00
sg53
VAnalysis
p63
sg54
VConfFile_cfg.py
p64
sg56
I01
sg55
(lp65
V../SF/egammaEffi.txt_EGM2D.root
p66
asg52
I180
sbsg23
g13
(g25
g15
Ntp67
Rp68
(dp69
g29
g4
sg30
g23
sg31
g32
((lp70
Vpublication
p71
aVoutputDatasetTag
p72
aVoutLFNDirBase
p73
aVsplitting
p74
aVinputDataset
p75
aVunitsPerJob
p76
atp77
Rp78
sg38
(dp79
sg40
g32
((lp80
tp81
Rp82
sg44
Nsg45
I00
sg75
V/DYto2L_M-50_TuneCP5_13p6TeV_pythia8/Run3Winter24MiniAOD-KeepSi_133X_mcRun3_2024_realistic_v8-v2/MINIAODSIM
p83
sg74
VFileBased
p84
sg76
I1
sg71
I01
sg72
VEGamma_MC_22G
p85
sg73
V/store/user/damram/
p86
sbsg24
g13
(g25
g15
Ntp87
Rp88
(dp89
g29
g4
sg30
g24
sg31
g32
((lp90
Vblacklist
p91
aVstorageSite
p92
atp93
Rp94
sg38
(dp95
sg40
g32
((lp96
tp97
Rp98
sg44
Nsg45
I00
sg92
VT3_FR_IPNL
p99
sg91
(lp100
VT3_UK_ScotGrid_GLA
p101
aVT1_IT_CNAF
p102
asbsbs.