(dp0
VServer
p1
Vcmsweb.cern.ch
p2
sVPort
p3
V
p4
sVRequestName
p5
V240916_221242:damram_crab_EGamma_crab_2022D
p6
sVvoRole
p7
VNULL
p8
sVvoGroup
p9
g4
sVinstance
p10
Vprod
p11
sVOriginalConfig
p12
ccopy_reg
_reconstructor
p13
(cWMCore.Configuration
Configuration
p14
c__builtin__
object
p15
Ntp16
Rp17
(dp18
V_internal_sections
p19
(lp20
VGeneral
p21
aVJobType
p22
aVData
p23
aVSite
p24
asg21
g13
(cWMCore.Configuration
ConfigSection
p25
g15
Ntp26
Rp27
(dp28
V_internal_documentation
p29
g4
sV_internal_name
p30
g21
sV_internal_settings
p31
c__builtin__
set
p32
((lp33
VworkArea
p34
aVrequestName
p35
atp36
Rp37
sV_internal_docstrings
p38
(dp39
sV_internal_children
p40
g32
((lp41
tp42
Rp43
sV_internal_parent_ref
p44
NsV_internal_skipChecks
p45
I00
sg35
VEGamma_crab_2022D
p46
sg34
Vcrab_projects
p47
sbsg22
g13
(g25
g15
Ntp48
Rp49
(dp50
g29
g4
sg30
g22
sg31
g32
((lp51
VpluginName
p52
aVallowUndistributedCMSSW
p53
aVmaxJobRuntimeMin
p54
aVpsetName
p55
atp56
Rp57
sg38
(dp58
sg40
g32
((lp59
tp60
Rp61
sg44
Nsg45
I00
sg52
VAnalysis
p62
sg55
VData_cfg.py
p63
sg53
I01
sg54
I180
sbsg23
g13
(g25
g15
Ntp64
Rp65
(dp66
g29
g4
sg30
g23
sg31
g32
((lp67
VinputDataset
p68
aVsplitting
p69
aVlumiMask
p70
aVunitsPerJob
p71
aVoutLFNDirBase
p72
aVpublication
p73
aVoutputDatasetTag
p74
atp75
Rp76
sg38
(dp77
sg40
g32
((lp78
tp79
Rp80
sg44
Nsg45
I00
sg68
V/EGamma/Run2022D-PromptReco-v1/MINIAOD
p81
sg69
VFileBased
p82
sg71
I1
sg73
I01
sg74
VEGamma_Run2022D
p83
sg70
V../Corrections/Cert_Collisions2022_355100_362760_Golden.json
p84
sg72
V/store/user/damram/
p85
sbsg24
g13
(g25
g15
Ntp86
Rp87
(dp88
g29
g4
sg30
g24
sg31
g32
((lp89
Vblacklist
p90
aVstorageSite
p91
atp92
Rp93
sg38
(dp94
sg40
g32
((lp95
tp96
Rp97
sg44
Nsg45
I00
sg91
VT3_FR_IPNL
p98
sg90
(lp99
VT3_UK_ScotGrid_GLA
p100
aVT1_IT_CNAF
p101
asbsbs.